(dp0
S'rerun_cfg'
p1
S''
p2
sS'clip'
p3
I00
sS'test_ratio'
p4
F0.33
sS'seed'
p5
I8859
sVnum_epochs
p6
I4000
sS'pen_sofmax'
p7
I01
sS'share_state'
p8
I01
sS'smax_pen_r'
p9
F0.0
sS'loss_swap_per'
p10
I50
sS'rnns_same_state'
p11
I00
sVdst
p12
VRNN/np_center-5ops/total_num_epochs#4000~state_size#300~test_ratio#0.33~num_samples#3500~batch_size#100~learning_rate#0.01~epsilon#0.001~num_features#4~norm#True~clip#False~softmax_sat#100~state_fn#relu~smax_pen_r#0.0~augument_grad#True~relaunch#True~seed#8859
p13
sS'state_size'
p14
I300
sS'train_fn'
p15
cdata_gen
np_center
p16
sS'sim_start_time'
p17
S'2017_09_20_204231'
p18
sS'augument_grad'
p19
I01
sS'add_noise'
p20
I01
sS'num_features'
p21
I4
sS'norm'
p22
I01
sS'epsilon'
p23
F0.001
sS'learning_rate'
p24
F0.01
sS'grad_clip_val_max'
p25
F10000.0
sS'batch_size'
p26
I100
sS'iters_per_epoch'
p27
I1
sS'state_fn'
p28
S'relu'
p29
sS'max_reward'
p30
I3000
sS'param_init'
p31
F0.1
sS'total_num_epochs'
p32
I4000
sS'relaunch'
p33
I01
sS'loss_weight'
p34
F0.5
sS'name'
p35
S'total_num_epochs#4000~state_size#300~test_ratio#0.33~num_samples#3500~batch_size#100~learning_rate#0.01~epsilon#0.001~num_features#4~norm#True~clip#False~softmax_sat#100~state_fn#relu~smax_pen_r#0.0~augument_grad#True~relaunch#True~seed#8859'
p36
sS'max_output_ops'
p37
I5
sS'datatype'
p38
ccopy_reg
_reconstructor
p39
(ctensorflow.python.framework.dtypes
DType
p40
c__builtin__
object
p41
Ntp42
Rp43
(dp44
S'_type_enum'
p45
I2
sbsS'convergance_check_epochs'
p46
I500
sS'grad_norm'
p47
F1000.0
sS'test_cycle'
p48
I5
sS'samples_value_rng'
p49
(I-100
I100
tp50
sS'logoff'
p51
I00
sS'softmax_sat'
p52
F100.0
sS'drop_rate'
p53
F0.15
sS'hardmax_break'
p54
I01
sS'num_samples'
p55
I3500
sS'debug'
p56
I00
sS'grad_clip_val_min'
p57
F-10000.0
sS'model'
p58
S'RNN'
p59
s.